---
triple:          'arm64-apple-darwin'
binary-path:     '/Users/anushkasudarshanjoshi/Documents/CYBROM/CPP/DS/28 Nov/output/2'
relocations:
  - { offsetInCU: 0x44C3, offset: 0x44C3, size: 0x8, addend: 0x0, symName: __ZNSt3__124__put_character_sequenceB8ue170006IcNS_11char_traitsIcEEEERNS_13basic_ostreamIT_T0_EES7_PKS4_m, symObjAddr: 0x14B4, symBinAddr: 0x100005080, symSize: 0x1F4 }
  - { offsetInCU: 0x690D, offset: 0x690D, size: 0x8, addend: 0x0, symName: __ZNSt3__1lsB8ue170006INS_11char_traitsIcEEEERNS_13basic_ostreamIcT_EES6_PKc, symObjAddr: 0x2AC, symBinAddr: 0x100003E78, symSize: 0x48 }
  - { offsetInCU: 0x6953, offset: 0x6953, size: 0x8, addend: 0x0, symName: __ZNSt3__1rsB8ue170006IcNS_11char_traitsIcEENS_9allocatorIcEEEERNS_13basic_istreamIT_T0_EES9_RNS_12basic_stringIS6_S7_T1_EE, symObjAddr: 0x2F4, symBinAddr: 0x100003EC0, symSize: 0x314 }
  - { offsetInCU: 0x6A20, offset: 0x6A20, size: 0x8, addend: 0x0, symName: __ZNSt3__19make_pairB8ue170006IRiRNS_12basic_stringIcNS_11char_traitsIcEENS_9allocatorIcEEEEEENS_4pairINS_18__unwrap_ref_decayIT_E4typeENSA_IT0_E4typeEEEOSB_OSE_, symObjAddr: 0x674, symBinAddr: 0x100004240, symSize: 0x40 }
  - { offsetInCU: 0x6A6F, offset: 0x6A6F, size: 0x8, addend: 0x0, symName: __ZNSt3__1lsB8ue170006IcNS_11char_traitsIcEENS_9allocatorIcEEEERNS_13basic_ostreamIT_T0_EES9_RKNS_12basic_stringIS6_S7_T1_EE, symObjAddr: 0x714, symBinAddr: 0x1000042E0, symSize: 0x4C }
  - { offsetInCU: 0x6AC7, offset: 0x6AC7, size: 0x8, addend: 0x0, symName: __ZNSt3__14endlB8ue170006IcNS_11char_traitsIcEEEERNS_13basic_ostreamIT_T0_EES7_, symObjAddr: 0x7B0, symBinAddr: 0x10000437C, symSize: 0x58 }
  - { offsetInCU: 0x6B07, offset: 0x6B07, size: 0x8, addend: 0x0, symName: __ZNSt3__112__to_addressB8ue170006INS_4pairIiNS_12basic_stringIcNS_11char_traitsIcEENS_9allocatorIcEEEEEEEEPT_SA_, symObjAddr: 0xD14, symBinAddr: 0x1000048E0, symSize: 0x14 }
  - { offsetInCU: 0x6B3C, offset: 0x6B3C, size: 0x8, addend: 0x0, symName: __ZNSt3__130__libcpp_is_constant_evaluatedB8ue170006Ev, symObjAddr: 0xE08, symBinAddr: 0x1000049D4, symSize: 0xC }
  - { offsetInCU: 0x6B59, offset: 0x6B59, size: 0x8, addend: 0x0, symName: __ZNSt3__119__libcpp_deallocateB8ue170006EPvmm, symObjAddr: 0xE14, symBinAddr: 0x1000049E0, symSize: 0x30 }
  - { offsetInCU: 0x6BA1, offset: 0x6BA1, size: 0x8, addend: 0x0, symName: __ZNSt3__127__do_deallocate_handle_sizeB8ue170006IJEEEvPvmDpT_, symObjAddr: 0xE44, symBinAddr: 0x100004A10, symSize: 0x28 }
  - { offsetInCU: 0x6BDF, offset: 0x6BDF, size: 0x8, addend: 0x0, symName: __ZNSt3__124__libcpp_operator_deleteB8ue170006IJPvEEEvDpT_, symObjAddr: 0xE6C, symBinAddr: 0x100004A38, symSize: 0x24 }
  - { offsetInCU: 0x6C14, offset: 0x6C14, size: 0x8, addend: 0x0, symName: __ZNSt3__117__libcpp_allocateB8ue170006Emm, symObjAddr: 0x141C, symBinAddr: 0x100004FE8, symSize: 0x28 }
  - { offsetInCU: 0x6C51, offset: 0x6C51, size: 0x8, addend: 0x0, symName: __ZNSt3__121__libcpp_operator_newB8ue170006IJmEEEPvDpT_, symObjAddr: 0x1458, symBinAddr: 0x100005024, symSize: 0x24 }
  - { offsetInCU: 0x6C8A, offset: 0x6C8A, size: 0x8, addend: 0x0, symName: __ZNSt3__116__pad_and_outputB8ue170006IcNS_11char_traitsIcEEEENS_19ostreambuf_iteratorIT_T0_EES6_PKS4_S8_S8_RNS_8ios_baseES4_, symObjAddr: 0x170C, symBinAddr: 0x1000052D8, symSize: 0x248 }
  - { offsetInCU: 0x6D59, offset: 0x6D59, size: 0x8, addend: 0x0, symName: __ZNSt3__112__to_addressB8ue170006IKcEEPT_S3_, symObjAddr: 0x1B84, symBinAddr: 0x100005750, symSize: 0x14 }
  - { offsetInCU: 0x6DC1, offset: 0x6DC1, size: 0x8, addend: 0x0, symName: __ZNSt3__19use_facetB8ue170006INS_5ctypeIcEEEERKT_RKNS_6localeE, symObjAddr: 0x1E5C, symBinAddr: 0x100005A28, symSize: 0x2C }
  - { offsetInCU: 0x719F, offset: 0x719F, size: 0x8, addend: 0x0, symName: __ZNSt3__118__constexpr_strlenB8ue170006EPKc, symObjAddr: 0x1EF4, symBinAddr: 0x100005AC0, symSize: 0x24 }
  - { offsetInCU: 0x7B8C, offset: 0x7B8C, size: 0x8, addend: 0x0, symName: __ZNSt3__13maxB8ue170006ImEERKT_S3_S3_, symObjAddr: 0x2B0C, symBinAddr: 0x1000066D8, symSize: 0x2C }
  - { offsetInCU: 0x7BCF, offset: 0x7BCF, size: 0x8, addend: 0x0, symName: __ZNSt3__13minB8ue170006ImEERKT_S3_S3_, symObjAddr: 0x2B38, symBinAddr: 0x100006704, symSize: 0x2C }
  - { offsetInCU: 0x7C12, offset: 0x7C12, size: 0x8, addend: 0x0, symName: __ZNSt3__13minB8ue170006ImNS_6__lessIvvEEEERKT_S5_S5_T0_, symObjAddr: 0x2BB0, symBinAddr: 0x10000677C, symSize: 0x54 }
  - { offsetInCU: 0x7CB1, offset: 0x7CB1, size: 0x8, addend: 0x0, symName: __ZNSt3__120__throw_length_errorB8ue170006EPKc, symObjAddr: 0x2C84, symBinAddr: 0x100006850, symSize: 0x64 }
  - { offsetInCU: 0x7CDB, offset: 0x7CDB, size: 0x8, addend: 0x0, symName: __ZNSt3__13maxB8ue170006ImNS_6__lessIvvEEEERKT_S5_S5_T0_, symObjAddr: 0x2D68, symBinAddr: 0x100006934, symSize: 0x54 }
  - { offsetInCU: 0x7D35, offset: 0x7D35, size: 0x8, addend: 0x0, symName: __ZNSt3__119__allocate_at_leastB8ue170006INS_9allocatorINS_4pairIiNS_12basic_stringIcNS_11char_traitsIcEENS1_IcEEEEEEEEEENS_19__allocation_resultINS_16allocator_traitsIT_E7pointerEEERSC_m, symObjAddr: 0x2ECC, symBinAddr: 0x100006A98, symSize: 0x40 }
  - { offsetInCU: 0x7D78, offset: 0x7D78, size: 0x8, addend: 0x0, symName: __ZNSt3__142__uninitialized_allocator_move_if_noexceptB8ue170006INS_9allocatorINS_4pairIiNS_12basic_stringIcNS_11char_traitsIcEENS1_IcEEEEEEEENS_16reverse_iteratorIPS8_EESC_SC_EET2_RT_T0_T1_SD_, symObjAddr: 0x30AC, symBinAddr: 0x100006C78, symSize: 0x134 }
  - { offsetInCU: 0x7E18, offset: 0x7E18, size: 0x8, addend: 0x0, symName: __ZNSt3__14swapB8ue170006IPNS_4pairIiNS_12basic_stringIcNS_11char_traitsIcEENS_9allocatorIcEEEEEEEEvRT_SB_, symObjAddr: 0x322C, symBinAddr: 0x100006DF8, symSize: 0x3C }
  - { offsetInCU: 0x7E69, offset: 0x7E69, size: 0x8, addend: 0x0, symName: __ZNSt3__122__make_exception_guardB8ue170006INS_29_AllocatorDestroyRangeReverseINS_9allocatorINS_4pairIiNS_12basic_stringIcNS_11char_traitsIcEENS2_IcEEEEEEEENS_16reverse_iteratorIPS9_EEEEEENS_28__exception_guard_exceptionsIT_EESG_, symObjAddr: 0x3314, symBinAddr: 0x100006EE0, symSize: 0x4C }
  - { offsetInCU: 0x7E9F, offset: 0x7E9F, size: 0x8, addend: 0x0, symName: __ZNSt3__1neB8ue170006IPNS_4pairIiNS_12basic_stringIcNS_11char_traitsIcEENS_9allocatorIcEEEEEES9_EEbRKNS_16reverse_iteratorIT_EERKNSA_IT0_EE, symObjAddr: 0x33A4, symBinAddr: 0x100006F70, symSize: 0x48 }
  - { offsetInCU: 0x7EEB, offset: 0x7EEB, size: 0x8, addend: 0x0, symName: __ZNSt3__112__to_addressB8ue170006INS_16reverse_iteratorIPNS_4pairIiNS_12basic_stringIcNS_11char_traitsIcEENS_9allocatorIcEEEEEEEEvEEu7__decayIDTclsr19__to_address_helperIT_EE6__callclsr3stdE7declvalIRKSC_EEEEESE_, symObjAddr: 0x3420, symBinAddr: 0x100006FEC, symSize: 0x24 }
  - { offsetInCU: 0x7F4A, offset: 0x7F4A, size: 0x8, addend: 0x0, symName: __ZNSt3__119__allocator_destroyB8ue170006INS_9allocatorINS_4pairIiNS_12basic_stringIcNS_11char_traitsIcEENS1_IcEEEEEEEENS_16reverse_iteratorINSA_IPS8_EEEESD_EEvRT_T0_T1_, symObjAddr: 0x3788, symBinAddr: 0x100007354, symSize: 0x70 }
  - { offsetInCU: 0x7FAF, offset: 0x7FAF, size: 0x8, addend: 0x0, symName: __ZNSt3__1neB8ue170006INS_16reverse_iteratorIPNS_4pairIiNS_12basic_stringIcNS_11char_traitsIcEENS_9allocatorIcEEEEEEEESB_EEbRKNS1_IT_EERKNS1_IT0_EE, symObjAddr: 0x3834, symBinAddr: 0x100007400, symSize: 0x60 }
  - { offsetInCU: 0x7FFB, offset: 0x7FFB, size: 0x8, addend: 0x0, symName: __ZNSt3__112__to_addressB8ue170006INS_16reverse_iteratorINS1_IPNS_4pairIiNS_12basic_stringIcNS_11char_traitsIcEENS_9allocatorIcEEEEEEEEEEvEEu7__decayIDTclsr19__to_address_helperIT_EE6__callclsr3stdE7declvalIRKSD_EEEEESF_, symObjAddr: 0x3894, symBinAddr: 0x100007460, symSize: 0x24 }
  - { offsetInCU: 0x8207, offset: 0x8207, size: 0x8, addend: 0x0, symName: __ZSt28__throw_bad_array_new_lengthB8ue170006v, symObjAddr: 0x13E8, symBinAddr: 0x100004FB4, symSize: 0x34 }
  - { offsetInCU: 0x879F, offset: 0x879F, size: 0x8, addend: 0x0, symName: __ZNSt3__16vectorINS_4pairIiNS_12basic_stringIcNS_11char_traitsIcEENS_9allocatorIcEEEEEENS5_IS8_EEE26__swap_out_circular_bufferERNS_14__split_bufferIS8_RS9_EE, symObjAddr: 0x2940, symBinAddr: 0x10000650C, symSize: 0x110 }
  - { offsetInCU: 0xAADB, offset: 0xAADB, size: 0x8, addend: 0x0, symName: _main, symObjAddr: 0x0, symBinAddr: 0x100003BCC, symSize: 0x254 }
  - { offsetInCU: 0xAB60, offset: 0xAB60, size: 0x8, addend: 0x0, symName: __ZNSt3__16vectorINS_4pairIiNS_12basic_stringIcNS_11char_traitsIcEENS_9allocatorIcEEEEEENS5_IS8_EEEC1B8ue170006Ev, symObjAddr: 0x254, symBinAddr: 0x100003E20, symSize: 0x2C }
  - { offsetInCU: 0xAB89, offset: 0xAB89, size: 0x8, addend: 0x0, symName: __ZNSt3__112basic_stringIcNS_11char_traitsIcEENS_9allocatorIcEEEC1B8ue170006Ev, symObjAddr: 0x280, symBinAddr: 0x100003E4C, symSize: 0x2C }
  - { offsetInCU: 0xABB1, offset: 0xABB1, size: 0x8, addend: 0x0, symName: __ZNSt3__16vectorINS_4pairIiNS_12basic_stringIcNS_11char_traitsIcEENS_9allocatorIcEEEEEENS5_IS8_EEE9push_backB8ue170006EOS8_, symObjAddr: 0x608, symBinAddr: 0x1000041D4, symSize: 0x6C }
  - { offsetInCU: 0xABE7, offset: 0xABE7, size: 0x8, addend: 0x0, symName: __ZNSt3__14pairIiNS_12basic_stringIcNS_11char_traitsIcEENS_9allocatorIcEEEEED1Ev, symObjAddr: 0x6B4, symBinAddr: 0x100004280, symSize: 0x2C }
  - { offsetInCU: 0xAC12, offset: 0xAC12, size: 0x8, addend: 0x0, symName: __ZNKSt3__16vectorINS_4pairIiNS_12basic_stringIcNS_11char_traitsIcEENS_9allocatorIcEEEEEENS5_IS8_EEE4sizeB8ue170006Ev, symObjAddr: 0x6EC, symBinAddr: 0x1000042B8, symSize: 0x28 }
  - { offsetInCU: 0xAC37, offset: 0xAC37, size: 0x8, addend: 0x0, symName: __ZNSt3__16vectorINS_4pairIiNS_12basic_stringIcNS_11char_traitsIcEENS_9allocatorIcEEEEEENS5_IS8_EEEixB8ue170006Em, symObjAddr: 0x760, symBinAddr: 0x10000432C, symSize: 0x24 }
  - { offsetInCU: 0xAC6D, offset: 0xAC6D, size: 0x8, addend: 0x0, symName: __ZNSt3__113basic_ostreamIcNS_11char_traitsIcEEElsB8ue170006EPFRS3_S4_E, symObjAddr: 0x784, symBinAddr: 0x100004350, symSize: 0x2C }
  - { offsetInCU: 0xACA0, offset: 0xACA0, size: 0x8, addend: 0x0, symName: __ZNSt3__16vectorINS_4pairIiNS_12basic_stringIcNS_11char_traitsIcEENS_9allocatorIcEEEEEENS5_IS8_EEED1B8ue170006Ev, symObjAddr: 0x808, symBinAddr: 0x1000043D4, symSize: 0x2C }
  - { offsetInCU: 0xACC9, offset: 0xACC9, size: 0x8, addend: 0x0, symName: __ZNSt3__14pairIiNS_12basic_stringIcNS_11char_traitsIcEENS_9allocatorIcEEEEED2Ev, symObjAddr: 0x834, symBinAddr: 0x100004400, symSize: 0x30 }
  - { offsetInCU: 0xACF4, offset: 0xACF4, size: 0x8, addend: 0x0, symName: __ZNSt3__16vectorINS_4pairIiNS_12basic_stringIcNS_11char_traitsIcEENS_9allocatorIcEEEEEENS5_IS8_EEEC2B8ue170006Ev, symObjAddr: 0x864, symBinAddr: 0x100004430, symSize: 0x44 }
  - { offsetInCU: 0xAD27, offset: 0xAD27, size: 0x8, addend: 0x0, symName: __ZNSt3__117__compressed_pairIPNS_4pairIiNS_12basic_stringIcNS_11char_traitsIcEENS_9allocatorIcEEEEEENS5_IS8_EEEC1B8ue170006IDnNS_18__default_init_tagEEEOT_OT0_, symObjAddr: 0x8A8, symBinAddr: 0x100004474, symSize: 0x3C }
  - { offsetInCU: 0xAD7E, offset: 0xAD7E, size: 0x8, addend: 0x0, symName: __ZNSt3__117__compressed_pairIPNS_4pairIiNS_12basic_stringIcNS_11char_traitsIcEENS_9allocatorIcEEEEEENS5_IS8_EEEC2B8ue170006IDnNS_18__default_init_tagEEEOT_OT0_, symObjAddr: 0x8E4, symBinAddr: 0x1000044B0, symSize: 0x40 }
  - { offsetInCU: 0xADD5, offset: 0xADD5, size: 0x8, addend: 0x0, symName: __ZNSt3__122__compressed_pair_elemIPNS_4pairIiNS_12basic_stringIcNS_11char_traitsIcEENS_9allocatorIcEEEEEELi0ELb0EEC2B8ue170006IDnvEEOT_, symObjAddr: 0x924, symBinAddr: 0x1000044F0, symSize: 0x1C }
  - { offsetInCU: 0xAE16, offset: 0xAE16, size: 0x8, addend: 0x0, symName: __ZNSt3__122__compressed_pair_elemINS_9allocatorINS_4pairIiNS_12basic_stringIcNS_11char_traitsIcEENS1_IcEEEEEEEELi1ELb1EEC2B8ue170006ENS_18__default_init_tagE, symObjAddr: 0x940, symBinAddr: 0x10000450C, symSize: 0x2C }
  - { offsetInCU: 0xAE4A, offset: 0xAE4A, size: 0x8, addend: 0x0, symName: __ZNSt3__19allocatorINS_4pairIiNS_12basic_stringIcNS_11char_traitsIcEENS0_IcEEEEEEEC2B8ue170006Ev, symObjAddr: 0x96C, symBinAddr: 0x100004538, symSize: 0x2C }
  - { offsetInCU: 0xAE73, offset: 0xAE73, size: 0x8, addend: 0x0, symName: __ZNSt3__116__non_trivial_ifILb1ENS_9allocatorINS_4pairIiNS_12basic_stringIcNS_11char_traitsIcEENS1_IcEEEEEEEEEC2B8ue170006Ev, symObjAddr: 0x998, symBinAddr: 0x100004564, symSize: 0x14 }
  - { offsetInCU: 0xAE9C, offset: 0xAE9C, size: 0x8, addend: 0x0, symName: __ZNSt3__16vectorINS_4pairIiNS_12basic_stringIcNS_11char_traitsIcEENS_9allocatorIcEEEEEENS5_IS8_EEED2B8ue170006Ev, symObjAddr: 0x9AC, symBinAddr: 0x100004578, symSize: 0x3C }
  - { offsetInCU: 0xAEC5, offset: 0xAEC5, size: 0x8, addend: 0x0, symName: __ZNSt3__16vectorINS_4pairIiNS_12basic_stringIcNS_11char_traitsIcEENS_9allocatorIcEEEEEENS5_IS8_EEE16__destroy_vectorC1B8ue170006ERSA_, symObjAddr: 0x9E8, symBinAddr: 0x1000045B4, symSize: 0x34 }
  - { offsetInCU: 0xAEFD, offset: 0xAEFD, size: 0x8, addend: 0x0, symName: __ZNSt3__16vectorINS_4pairIiNS_12basic_stringIcNS_11char_traitsIcEENS_9allocatorIcEEEEEENS5_IS8_EEE16__destroy_vectorclB8ue170006Ev, symObjAddr: 0xA1C, symBinAddr: 0x1000045E8, symSize: 0x90 }
  - { offsetInCU: 0xAF22, offset: 0xAF22, size: 0x8, addend: 0x0, symName: __ZNSt3__16vectorINS_4pairIiNS_12basic_stringIcNS_11char_traitsIcEENS_9allocatorIcEEEEEENS5_IS8_EEE16__destroy_vectorC2B8ue170006ERSA_, symObjAddr: 0xAAC, symBinAddr: 0x100004678, symSize: 0x20 }
  - { offsetInCU: 0xAF5A, offset: 0xAF5A, size: 0x8, addend: 0x0, symName: __ZNSt3__16vectorINS_4pairIiNS_12basic_stringIcNS_11char_traitsIcEENS_9allocatorIcEEEEEENS5_IS8_EEE7__clearB8ue170006Ev, symObjAddr: 0xACC, symBinAddr: 0x100004698, symSize: 0x28 }
  - { offsetInCU: 0xAF7F, offset: 0xAF7F, size: 0x8, addend: 0x0, symName: __ZNKSt3__16vectorINS_4pairIiNS_12basic_stringIcNS_11char_traitsIcEENS_9allocatorIcEEEEEENS5_IS8_EEE17__annotate_deleteB8ue170006Ev, symObjAddr: 0xAF4, symBinAddr: 0x1000046C0, symSize: 0xB8 }
  - { offsetInCU: 0xAFA4, offset: 0xAFA4, size: 0x8, addend: 0x0, symName: __ZNSt3__116allocator_traitsINS_9allocatorINS_4pairIiNS_12basic_stringIcNS_11char_traitsIcEENS1_IcEEEEEEEEE10deallocateB8ue170006ERS9_PS8_m, symObjAddr: 0xBAC, symBinAddr: 0x100004778, symSize: 0x34 }
  - { offsetInCU: 0xAFE6, offset: 0xAFE6, size: 0x8, addend: 0x0, symName: __ZNSt3__16vectorINS_4pairIiNS_12basic_stringIcNS_11char_traitsIcEENS_9allocatorIcEEEEEENS5_IS8_EEE7__allocB8ue170006Ev, symObjAddr: 0xBE0, symBinAddr: 0x1000047AC, symSize: 0x28 }
  - { offsetInCU: 0xB00B, offset: 0xB00B, size: 0x8, addend: 0x0, symName: __ZNKSt3__16vectorINS_4pairIiNS_12basic_stringIcNS_11char_traitsIcEENS_9allocatorIcEEEEEENS5_IS8_EEE8capacityB8ue170006Ev, symObjAddr: 0xC08, symBinAddr: 0x1000047D4, symSize: 0x40 }
  - { offsetInCU: 0xB030, offset: 0xB030, size: 0x8, addend: 0x0, symName: __ZNSt3__16vectorINS_4pairIiNS_12basic_stringIcNS_11char_traitsIcEENS_9allocatorIcEEEEEENS5_IS8_EEE22__base_destruct_at_endB8ue170006EPS8_, symObjAddr: 0xC48, symBinAddr: 0x100004814, symSize: 0xA0 }
  - { offsetInCU: 0xB073, offset: 0xB073, size: 0x8, addend: 0x0, symName: __ZNSt3__116allocator_traitsINS_9allocatorINS_4pairIiNS_12basic_stringIcNS_11char_traitsIcEENS1_IcEEEEEEEEE7destroyB8ue170006IS8_vEEvRS9_PT_, symObjAddr: 0xCE8, symBinAddr: 0x1000048B4, symSize: 0x2C }
  - { offsetInCU: 0xB0B0, offset: 0xB0B0, size: 0x8, addend: 0x0, symName: __ZNSt3__19allocatorINS_4pairIiNS_12basic_stringIcNS_11char_traitsIcEENS0_IcEEEEEEE7destroyB8ue170006EPS7_, symObjAddr: 0xD28, symBinAddr: 0x1000048F4, symSize: 0x28 }
  - { offsetInCU: 0xB0E3, offset: 0xB0E3, size: 0x8, addend: 0x0, symName: __ZNKSt3__16vectorINS_4pairIiNS_12basic_stringIcNS_11char_traitsIcEENS_9allocatorIcEEEEEENS5_IS8_EEE31__annotate_contiguous_containerB8ue170006EPKvSC_SC_SC_, symObjAddr: 0xD50, symBinAddr: 0x10000491C, symSize: 0x20 }
  - { offsetInCU: 0xB138, offset: 0xB138, size: 0x8, addend: 0x0, symName: __ZNKSt3__16vectorINS_4pairIiNS_12basic_stringIcNS_11char_traitsIcEENS_9allocatorIcEEEEEENS5_IS8_EEE4dataB8ue170006Ev, symObjAddr: 0xD70, symBinAddr: 0x10000493C, symSize: 0x28 }
  - { offsetInCU: 0xB15D, offset: 0xB15D, size: 0x8, addend: 0x0, symName: __ZNSt3__19allocatorINS_4pairIiNS_12basic_stringIcNS_11char_traitsIcEENS0_IcEEEEEEE10deallocateB8ue170006EPS7_m, symObjAddr: 0xD98, symBinAddr: 0x100004964, symSize: 0x70 }
  - { offsetInCU: 0xB19E, offset: 0xB19E, size: 0x8, addend: 0x0, symName: __ZNSt3__117__compressed_pairIPNS_4pairIiNS_12basic_stringIcNS_11char_traitsIcEENS_9allocatorIcEEEEEENS5_IS8_EEE6secondB8ue170006Ev, symObjAddr: 0xE90, symBinAddr: 0x100004A5C, symSize: 0x24 }
  - { offsetInCU: 0xB1C3, offset: 0xB1C3, size: 0x8, addend: 0x0, symName: __ZNSt3__122__compressed_pair_elemINS_9allocatorINS_4pairIiNS_12basic_stringIcNS_11char_traitsIcEENS1_IcEEEEEEEELi1ELb1EE5__getB8ue170006Ev, symObjAddr: 0xEB4, symBinAddr: 0x100004A80, symSize: 0x14 }
  - { offsetInCU: 0xB1E8, offset: 0xB1E8, size: 0x8, addend: 0x0, symName: __ZNKSt3__16vectorINS_4pairIiNS_12basic_stringIcNS_11char_traitsIcEENS_9allocatorIcEEEEEENS5_IS8_EEE9__end_capB8ue170006Ev, symObjAddr: 0xEC8, symBinAddr: 0x100004A94, symSize: 0x28 }
  - { offsetInCU: 0xB20D, offset: 0xB20D, size: 0x8, addend: 0x0, symName: __ZNKSt3__117__compressed_pairIPNS_4pairIiNS_12basic_stringIcNS_11char_traitsIcEENS_9allocatorIcEEEEEENS5_IS8_EEE5firstB8ue170006Ev, symObjAddr: 0xEF0, symBinAddr: 0x100004ABC, symSize: 0x24 }
  - { offsetInCU: 0xB232, offset: 0xB232, size: 0x8, addend: 0x0, symName: __ZNKSt3__122__compressed_pair_elemIPNS_4pairIiNS_12basic_stringIcNS_11char_traitsIcEENS_9allocatorIcEEEEEELi0ELb0EE5__getB8ue170006Ev, symObjAddr: 0xF14, symBinAddr: 0x100004AE0, symSize: 0x14 }
  - { offsetInCU: 0xB257, offset: 0xB257, size: 0x8, addend: 0x0, symName: __ZNSt3__112basic_stringIcNS_11char_traitsIcEENS_9allocatorIcEEEC2B8ue170006Ev, symObjAddr: 0xF28, symBinAddr: 0x100004AF4, symSize: 0x3C }
  - { offsetInCU: 0xB280, offset: 0xB280, size: 0x8, addend: 0x0, symName: __ZNSt3__117__compressed_pairINS_12basic_stringIcNS_11char_traitsIcEENS_9allocatorIcEEE5__repES5_EC1B8ue170006INS_18__default_init_tagESA_EEOT_OT0_, symObjAddr: 0xF64, symBinAddr: 0x100004B30, symSize: 0x3C }
  - { offsetInCU: 0xB2D7, offset: 0xB2D7, size: 0x8, addend: 0x0, symName: __ZNSt3__112basic_stringIcNS_11char_traitsIcEENS_9allocatorIcEEE14__default_initB8ue170006Ev, symObjAddr: 0xFA0, symBinAddr: 0x100004B6C, symSize: 0xB0 }
  - { offsetInCU: 0xB329, offset: 0xB329, size: 0x8, addend: 0x0, symName: __ZNSt3__117__compressed_pairINS_12basic_stringIcNS_11char_traitsIcEENS_9allocatorIcEEE5__repES5_EC2B8ue170006INS_18__default_init_tagESA_EEOT_OT0_, symObjAddr: 0x1050, symBinAddr: 0x100004C1C, symSize: 0x3C }
  - { offsetInCU: 0xB380, offset: 0xB380, size: 0x8, addend: 0x0, symName: __ZNSt3__122__compressed_pair_elemINS_12basic_stringIcNS_11char_traitsIcEENS_9allocatorIcEEE5__repELi0ELb0EEC2B8ue170006ENS_18__default_init_tagE, symObjAddr: 0x108C, symBinAddr: 0x100004C58, symSize: 0x14 }
  - { offsetInCU: 0xB3B4, offset: 0xB3B4, size: 0x8, addend: 0x0, symName: __ZNSt3__122__compressed_pair_elemINS_9allocatorIcEELi1ELb1EEC2B8ue170006ENS_18__default_init_tagE, symObjAddr: 0x10A0, symBinAddr: 0x100004C6C, symSize: 0x2C }
  - { offsetInCU: 0xB3E8, offset: 0xB3E8, size: 0x8, addend: 0x0, symName: __ZNSt3__19allocatorIcEC2B8ue170006Ev, symObjAddr: 0x10CC, symBinAddr: 0x100004C98, symSize: 0x2C }
  - { offsetInCU: 0xB411, offset: 0xB411, size: 0x8, addend: 0x0, symName: __ZNSt3__116__non_trivial_ifILb1ENS_9allocatorIcEEEC2B8ue170006Ev, symObjAddr: 0x10F8, symBinAddr: 0x100004CC4, symSize: 0x14 }
  - { offsetInCU: 0xB43A, offset: 0xB43A, size: 0x8, addend: 0x0, symName: __ZNSt3__117__compressed_pairINS_12basic_stringIcNS_11char_traitsIcEENS_9allocatorIcEEE5__repES5_E5firstB8ue170006Ev, symObjAddr: 0x110C, symBinAddr: 0x100004CD8, symSize: 0x24 }
  - { offsetInCU: 0xB45F, offset: 0xB45F, size: 0x8, addend: 0x0, symName: __ZNSt3__112basic_stringIcNS_11char_traitsIcEENS_9allocatorIcEEE11__recommendB8ue170006Em, symObjAddr: 0x1130, symBinAddr: 0x100004CFC, symSize: 0x9C }
  - { offsetInCU: 0xB492, offset: 0xB492, size: 0x8, addend: 0x0, symName: __ZNSt3__116allocator_traitsINS_9allocatorIcEEE8allocateB8ue170006ERS2_m, symObjAddr: 0x11CC, symBinAddr: 0x100004D98, symSize: 0x2C }
  - { offsetInCU: 0xB4C5, offset: 0xB4C5, size: 0x8, addend: 0x0, symName: __ZNSt3__112basic_stringIcNS_11char_traitsIcEENS_9allocatorIcEEE7__allocB8ue170006Ev, symObjAddr: 0x11F8, symBinAddr: 0x100004DC4, symSize: 0x24 }
  - { offsetInCU: 0xB4EA, offset: 0xB4EA, size: 0x8, addend: 0x0, symName: __ZNSt3__112basic_stringIcNS_11char_traitsIcEENS_9allocatorIcEEE16__begin_lifetimeB8ue170006EPcm, symObjAddr: 0x121C, symBinAddr: 0x100004DE8, symSize: 0x14 }
  - { offsetInCU: 0xB51D, offset: 0xB51D, size: 0x8, addend: 0x0, symName: __ZNSt3__112basic_stringIcNS_11char_traitsIcEENS_9allocatorIcEEE18__set_long_pointerB8ue170006EPc, symObjAddr: 0x1230, symBinAddr: 0x100004DFC, symSize: 0x38 }
  - { offsetInCU: 0xB551, offset: 0xB551, size: 0x8, addend: 0x0, symName: __ZNSt3__112basic_stringIcNS_11char_traitsIcEENS_9allocatorIcEEE14__set_long_capB8ue170006Em, symObjAddr: 0x1268, symBinAddr: 0x100004E34, symSize: 0x70 }
  - { offsetInCU: 0xB585, offset: 0xB585, size: 0x8, addend: 0x0, symName: __ZNSt3__112basic_stringIcNS_11char_traitsIcEENS_9allocatorIcEEE15__set_long_sizeB8ue170006Em, symObjAddr: 0x12D8, symBinAddr: 0x100004EA4, symSize: 0x38 }
  - { offsetInCU: 0xB5B9, offset: 0xB5B9, size: 0x8, addend: 0x0, symName: __ZNSt3__122__compressed_pair_elemINS_12basic_stringIcNS_11char_traitsIcEENS_9allocatorIcEEE5__repELi0ELb0EE5__getB8ue170006Ev, symObjAddr: 0x1310, symBinAddr: 0x100004EDC, symSize: 0x14 }
  - { offsetInCU: 0xB5DE, offset: 0xB5DE, size: 0x8, addend: 0x0, symName: __ZNSt3__112basic_stringIcNS_11char_traitsIcEENS_9allocatorIcEEE10__align_itB8ue170006ILm16EEEmm, symObjAddr: 0x1324, symBinAddr: 0x100004EF0, symSize: 0x1C }
  - { offsetInCU: 0xB60C, offset: 0xB60C, size: 0x8, addend: 0x0, symName: __ZNSt3__19allocatorIcE8allocateB8ue170006Em, symObjAddr: 0x1340, symBinAddr: 0x100004F0C, symSize: 0x84 }
  - { offsetInCU: 0xB649, offset: 0xB649, size: 0x8, addend: 0x0, symName: __ZNSt3__116allocator_traitsINS_9allocatorIcEEE8max_sizeB8ue170006IS2_vEEmRKS2_, symObjAddr: 0x13C4, symBinAddr: 0x100004F90, symSize: 0x24 }
  - { offsetInCU: 0xB677, offset: 0xB677, size: 0x8, addend: 0x0, symName: __ZNKSt3__19allocatorIcE8max_sizeB8ue170006Ev, symObjAddr: 0x1444, symBinAddr: 0x100005010, symSize: 0x14 }
  - { offsetInCU: 0xB69C, offset: 0xB69C, size: 0x8, addend: 0x0, symName: __ZNSt3__117__compressed_pairINS_12basic_stringIcNS_11char_traitsIcEENS_9allocatorIcEEE5__repES5_E6secondB8ue170006Ev, symObjAddr: 0x147C, symBinAddr: 0x100005048, symSize: 0x24 }
  - { offsetInCU: 0xB6C1, offset: 0xB6C1, size: 0x8, addend: 0x0, symName: __ZNSt3__122__compressed_pair_elemINS_9allocatorIcEELi1ELb1EE5__getB8ue170006Ev, symObjAddr: 0x14A0, symBinAddr: 0x10000506C, symSize: 0x14 }
  - { offsetInCU: 0xB6E6, offset: 0xB6E6, size: 0x8, addend: 0x0, symName: __ZNSt3__111char_traitsIcE6lengthB8ue170006EPKc, symObjAddr: 0x16A8, symBinAddr: 0x100005274, symSize: 0x48 }
  - { offsetInCU: 0xB727, offset: 0xB727, size: 0x8, addend: 0x0, symName: __ZNKSt3__113basic_ostreamIcNS_11char_traitsIcEEE6sentrycvbB8ue170006Ev, symObjAddr: 0x16F0, symBinAddr: 0x1000052BC, symSize: 0x1C }
  - { offsetInCU: 0xB74C, offset: 0xB74C, size: 0x8, addend: 0x0, symName: __ZNSt3__119ostreambuf_iteratorIcNS_11char_traitsIcEEEC1B8ue170006ERNS_13basic_ostreamIcS2_EE, symObjAddr: 0x1954, symBinAddr: 0x100005520, symSize: 0x34 }
  - { offsetInCU: 0xB783, offset: 0xB783, size: 0x8, addend: 0x0, symName: __ZNKSt3__18ios_base5flagsB8ue170006Ev, symObjAddr: 0x1988, symBinAddr: 0x100005554, symSize: 0x18 }
  - { offsetInCU: 0xB7A9, offset: 0xB7A9, size: 0x8, addend: 0x0, symName: __ZNKSt3__19basic_iosIcNS_11char_traitsIcEEE4fillB8ue170006Ev, symObjAddr: 0x19A0, symBinAddr: 0x10000556C, symSize: 0x64 }
  - { offsetInCU: 0xB7D0, offset: 0xB7D0, size: 0x8, addend: 0x0, symName: __ZNKSt3__119ostreambuf_iteratorIcNS_11char_traitsIcEEE6failedB8ue170006Ev, symObjAddr: 0x1A04, symBinAddr: 0x1000055D0, symSize: 0x24 }
  - { offsetInCU: 0xB7F5, offset: 0xB7F5, size: 0x8, addend: 0x0, symName: __ZNSt3__19basic_iosIcNS_11char_traitsIcEEE8setstateB8ue170006Ej, symObjAddr: 0x1A28, symBinAddr: 0x1000055F4, symSize: 0x2C }
  - { offsetInCU: 0xB829, offset: 0xB829, size: 0x8, addend: 0x0, symName: __ZNKSt3__18ios_base5widthB8ue170006Ev, symObjAddr: 0x1A54, symBinAddr: 0x100005620, symSize: 0x18 }
  - { offsetInCU: 0xB850, offset: 0xB850, size: 0x8, addend: 0x0, symName: __ZNSt3__115basic_streambufIcNS_11char_traitsIcEEE5sputnB8ue170006EPKcl, symObjAddr: 0x1A6C, symBinAddr: 0x100005638, symSize: 0x3C }
  - { offsetInCU: 0xB891, offset: 0xB891, size: 0x8, addend: 0x0, symName: __ZNSt3__112basic_stringIcNS_11char_traitsIcEENS_9allocatorIcEEEC1B8ue170006Emc, symObjAddr: 0x1AA8, symBinAddr: 0x100005674, symSize: 0x3C }
  - { offsetInCU: 0xB8D8, offset: 0xB8D8, size: 0x8, addend: 0x0, symName: __ZNKSt3__112basic_stringIcNS_11char_traitsIcEENS_9allocatorIcEEE4dataB8ue170006Ev, symObjAddr: 0x1AE4, symBinAddr: 0x1000056B0, symSize: 0x28 }
  - { offsetInCU: 0xB8FD, offset: 0xB8FD, size: 0x8, addend: 0x0, symName: __ZNSt3__18ios_base5widthB8ue170006El, symObjAddr: 0x1B0C, symBinAddr: 0x1000056D8, symSize: 0x2C }
  - { offsetInCU: 0xB942, offset: 0xB942, size: 0x8, addend: 0x0, symName: __ZNSt3__112basic_stringIcNS_11char_traitsIcEENS_9allocatorIcEEEC2B8ue170006Emc, symObjAddr: 0x1B38, symBinAddr: 0x100005704, symSize: 0x4C }
  - { offsetInCU: 0xB989, offset: 0xB989, size: 0x8, addend: 0x0, symName: __ZNKSt3__112basic_stringIcNS_11char_traitsIcEENS_9allocatorIcEEE13__get_pointerB8ue170006Ev, symObjAddr: 0x1B98, symBinAddr: 0x100005764, symSize: 0x54 }
  - { offsetInCU: 0xB9AE, offset: 0xB9AE, size: 0x8, addend: 0x0, symName: __ZNKSt3__112basic_stringIcNS_11char_traitsIcEENS_9allocatorIcEEE9__is_longB8ue170006Ev, symObjAddr: 0x1BEC, symBinAddr: 0x1000057B8, symSize: 0x74 }
  - { offsetInCU: 0xB9D3, offset: 0xB9D3, size: 0x8, addend: 0x0, symName: __ZNKSt3__112basic_stringIcNS_11char_traitsIcEENS_9allocatorIcEEE18__get_long_pointerB8ue170006Ev, symObjAddr: 0x1C60, symBinAddr: 0x10000582C, symSize: 0x28 }
  - { offsetInCU: 0xB9F8, offset: 0xB9F8, size: 0x8, addend: 0x0, symName: __ZNKSt3__112basic_stringIcNS_11char_traitsIcEENS_9allocatorIcEEE19__get_short_pointerB8ue170006Ev, symObjAddr: 0x1C88, symBinAddr: 0x100005854, symSize: 0x28 }
  - { offsetInCU: 0xBA1D, offset: 0xBA1D, size: 0x8, addend: 0x0, symName: __ZNKSt3__117__compressed_pairINS_12basic_stringIcNS_11char_traitsIcEENS_9allocatorIcEEE5__repES5_E5firstB8ue170006Ev, symObjAddr: 0x1CB0, symBinAddr: 0x10000587C, symSize: 0x24 }
  - { offsetInCU: 0xBA42, offset: 0xBA42, size: 0x8, addend: 0x0, symName: __ZNKSt3__122__compressed_pair_elemINS_12basic_stringIcNS_11char_traitsIcEENS_9allocatorIcEEE5__repELi0ELb0EE5__getB8ue170006Ev, symObjAddr: 0x1CD4, symBinAddr: 0x1000058A0, symSize: 0x14 }
  - { offsetInCU: 0xBA67, offset: 0xBA67, size: 0x8, addend: 0x0, symName: __ZNSt3__114pointer_traitsIPKcE10pointer_toB8ue170006ERS1_, symObjAddr: 0x1CE8, symBinAddr: 0x1000058B4, symSize: 0x14 }
  - { offsetInCU: 0xBA8A, offset: 0xBA8A, size: 0x8, addend: 0x0, symName: __ZNSt3__119ostreambuf_iteratorIcNS_11char_traitsIcEEEC2B8ue170006ERNS_13basic_ostreamIcS2_EE, symObjAddr: 0x1CFC, symBinAddr: 0x1000058C8, symSize: 0x68 }
  - { offsetInCU: 0xBAC0, offset: 0xBAC0, size: 0x8, addend: 0x0, symName: __ZNKSt3__19basic_iosIcNS_11char_traitsIcEEE5rdbufB8ue170006Ev, symObjAddr: 0x1D64, symBinAddr: 0x100005930, symSize: 0x24 }
  - { offsetInCU: 0xBAE7, offset: 0xBAE7, size: 0x8, addend: 0x0, symName: __ZNKSt3__18ios_base5rdbufB8ue170006Ev, symObjAddr: 0x1D88, symBinAddr: 0x100005954, symSize: 0x18 }
  - { offsetInCU: 0xBB0C, offset: 0xBB0C, size: 0x8, addend: 0x0, symName: __ZNSt3__111char_traitsIcE11eq_int_typeB8ue170006Eii, symObjAddr: 0x1DA0, symBinAddr: 0x10000596C, symSize: 0x28 }
  - { offsetInCU: 0xBB3F, offset: 0xBB3F, size: 0x8, addend: 0x0, symName: __ZNSt3__111char_traitsIcE3eofB8ue170006Ev, symObjAddr: 0x1DC8, symBinAddr: 0x100005994, symSize: 0x8 }
  - { offsetInCU: 0xBB52, offset: 0xBB52, size: 0x8, addend: 0x0, symName: __ZNKSt3__19basic_iosIcNS_11char_traitsIcEEE5widenB8ue170006Ec, symObjAddr: 0x1DD0, symBinAddr: 0x10000599C, symSize: 0x8C }
  - { offsetInCU: 0xBBB5, offset: 0xBBB5, size: 0x8, addend: 0x0, symName: __ZNKSt3__15ctypeIcE5widenB8ue170006Ec, symObjAddr: 0x1E88, symBinAddr: 0x100005A54, symSize: 0x38 }
  - { offsetInCU: 0xBBE8, offset: 0xBBE8, size: 0x8, addend: 0x0, symName: __ZNSt3__18ios_base8setstateB8ue170006Ej, symObjAddr: 0x1EC0, symBinAddr: 0x100005A8C, symSize: 0x34 }
  - { offsetInCU: 0xBCB0, offset: 0xBCB0, size: 0x8, addend: 0x0, symName: __ZNKSt3__113basic_istreamIcNS_11char_traitsIcEEE6sentrycvbB8ue170006Ev, symObjAddr: 0x1F18, symBinAddr: 0x100005AE4, symSize: 0x1C }
  - { offsetInCU: 0xBCD4, offset: 0xBCD4, size: 0x8, addend: 0x0, symName: __ZNSt3__112basic_stringIcNS_11char_traitsIcEENS_9allocatorIcEEE5clearB8ue170006Ev, symObjAddr: 0x1F34, symBinAddr: 0x100005B00, symSize: 0x78 }
  - { offsetInCU: 0xBCFB, offset: 0xBCFB, size: 0x8, addend: 0x0, symName: __ZNKSt3__112basic_stringIcNS_11char_traitsIcEENS_9allocatorIcEEE8max_sizeB8ue170006Ev, symObjAddr: 0x1FAC, symBinAddr: 0x100005B78, symSize: 0xAC }
  - { offsetInCU: 0xBD4D, offset: 0xBD4D, size: 0x8, addend: 0x0, symName: __ZNSt3__114numeric_limitsIlE3maxB8ue170006Ev, symObjAddr: 0x2058, symBinAddr: 0x100005C24, symSize: 0x14 }
  - { offsetInCU: 0xBD61, offset: 0xBD61, size: 0x8, addend: 0x0, symName: __ZNSt3__115basic_streambufIcNS_11char_traitsIcEEE5sgetcB8ue170006Ev, symObjAddr: 0x206C, symBinAddr: 0x100005C38, symSize: 0x70 }
  - { offsetInCU: 0xBD86, offset: 0xBD86, size: 0x8, addend: 0x0, symName: __ZNSt3__111char_traitsIcE12to_char_typeB8ue170006Ei, symObjAddr: 0x20DC, symBinAddr: 0x100005CA8, symSize: 0x18 }
  - { offsetInCU: 0xBDA9, offset: 0xBDA9, size: 0x8, addend: 0x0, symName: __ZNKSt3__15ctypeIcE2isB8ue170006Ejc, symObjAddr: 0x20F4, symBinAddr: 0x100005CC0, symSize: 0x7C }
  - { offsetInCU: 0xBDEC, offset: 0xBDEC, size: 0x8, addend: 0x0, symName: __ZNSt3__115basic_streambufIcNS_11char_traitsIcEEE6sbumpcB8ue170006Ev, symObjAddr: 0x2170, symBinAddr: 0x100005D3C, symSize: 0x78 }
  - { offsetInCU: 0xBE11, offset: 0xBE11, size: 0x8, addend: 0x0, symName: __ZNSt3__18ios_base18__setstate_nothrowB8ue170006Ej, symObjAddr: 0x21E8, symBinAddr: 0x100005DB4, symSize: 0x64 }
  - { offsetInCU: 0xBE45, offset: 0xBE45, size: 0x8, addend: 0x0, symName: __ZNKSt3__19basic_iosIcNS_11char_traitsIcEEE10exceptionsB8ue170006Ev, symObjAddr: 0x224C, symBinAddr: 0x100005E18, symSize: 0x24 }
  - { offsetInCU: 0xBE6A, offset: 0xBE6A, size: 0x8, addend: 0x0, symName: __ZNSt3__111char_traitsIcE6assignB8ue170006ERcRKc, symObjAddr: 0x2270, symBinAddr: 0x100005E3C, symSize: 0x24 }
  - { offsetInCU: 0xBE9B, offset: 0xBE9B, size: 0x8, addend: 0x0, symName: __ZNSt3__112basic_stringIcNS_11char_traitsIcEENS_9allocatorIcEEE18__get_long_pointerB8ue170006Ev, symObjAddr: 0x2294, symBinAddr: 0x100005E60, symSize: 0x28 }
  - { offsetInCU: 0xBEC0, offset: 0xBEC0, size: 0x8, addend: 0x0, symName: __ZNSt3__112basic_stringIcNS_11char_traitsIcEENS_9allocatorIcEEE19__get_short_pointerB8ue170006Ev, symObjAddr: 0x22BC, symBinAddr: 0x100005E88, symSize: 0x28 }
  - { offsetInCU: 0xBEE5, offset: 0xBEE5, size: 0x8, addend: 0x0, symName: __ZNSt3__112basic_stringIcNS_11char_traitsIcEENS_9allocatorIcEEE16__set_short_sizeB8ue170006Em, symObjAddr: 0x22E4, symBinAddr: 0x100005EB0, symSize: 0x78 }
  - { offsetInCU: 0xBF19, offset: 0xBF19, size: 0x8, addend: 0x0, symName: __ZNSt3__114pointer_traitsIPcE10pointer_toB8ue170006ERc, symObjAddr: 0x235C, symBinAddr: 0x100005F28, symSize: 0x14 }
  - { offsetInCU: 0xBF3C, offset: 0xBF3C, size: 0x8, addend: 0x0, symName: __ZNKSt3__112basic_stringIcNS_11char_traitsIcEENS_9allocatorIcEEE7__allocB8ue170006Ev, symObjAddr: 0x2370, symBinAddr: 0x100005F3C, symSize: 0x24 }
  - { offsetInCU: 0xBF61, offset: 0xBF61, size: 0x8, addend: 0x0, symName: __ZNSt3__114numeric_limitsImE3maxB8ue170006Ev, symObjAddr: 0x2394, symBinAddr: 0x100005F60, symSize: 0x14 }
  - { offsetInCU: 0xBF75, offset: 0xBF75, size: 0x8, addend: 0x0, symName: __ZNKSt3__117__compressed_pairINS_12basic_stringIcNS_11char_traitsIcEENS_9allocatorIcEEE5__repES5_E6secondB8ue170006Ev, symObjAddr: 0x23A8, symBinAddr: 0x100005F74, symSize: 0x24 }
  - { offsetInCU: 0xBF9A, offset: 0xBF9A, size: 0x8, addend: 0x0, symName: __ZNKSt3__122__compressed_pair_elemINS_9allocatorIcEELi1ELb1EE5__getB8ue170006Ev, symObjAddr: 0x23CC, symBinAddr: 0x100005F98, symSize: 0x14 }
  - { offsetInCU: 0xBFBF, offset: 0xBFBF, size: 0x8, addend: 0x0, symName: __ZNSt3__123__libcpp_numeric_limitsImLb1EE3maxB8ue170006Ev, symObjAddr: 0x23E0, symBinAddr: 0x100005FAC, symSize: 0x8 }
  - { offsetInCU: 0xBFD3, offset: 0xBFD3, size: 0x8, addend: 0x0, symName: __ZNSt3__123__libcpp_numeric_limitsIlLb1EE3maxB8ue170006Ev, symObjAddr: 0x23E8, symBinAddr: 0x100005FB4, symSize: 0x8 }
  - { offsetInCU: 0xBFE7, offset: 0xBFE7, size: 0x8, addend: 0x0, symName: __ZNSt3__111char_traitsIcE11to_int_typeB8ue170006Ec, symObjAddr: 0x23F0, symBinAddr: 0x100005FBC, symSize: 0x14 }
  - { offsetInCU: 0xC00A, offset: 0xC00A, size: 0x8, addend: 0x0, symName: __Z7isasciii, symObjAddr: 0x2404, symBinAddr: 0x100005FD0, symSize: 0x24 }
  - { offsetInCU: 0xC037, offset: 0xC037, size: 0x8, addend: 0x0, symName: __ZNKSt3__18ios_base10exceptionsB8ue170006Ev, symObjAddr: 0x2428, symBinAddr: 0x100005FF4, symSize: 0x18 }
  - { offsetInCU: 0xC05E, offset: 0xC05E, size: 0x8, addend: 0x0, symName: __ZNSt3__14pairIiNS_12basic_stringIcNS_11char_traitsIcEENS_9allocatorIcEEEEEC1B8ue170006ERKiRKS6_, symObjAddr: 0x2440, symBinAddr: 0x10000600C, symSize: 0x3C }
  - { offsetInCU: 0xC0A3, offset: 0xC0A3, size: 0x8, addend: 0x0, symName: __ZNSt3__14pairIiNS_12basic_stringIcNS_11char_traitsIcEENS_9allocatorIcEEEEEC2B8ue170006ERKiRKS6_, symObjAddr: 0x247C, symBinAddr: 0x100006048, symSize: 0x48 }
  - { offsetInCU: 0xC0E8, offset: 0xC0E8, size: 0x8, addend: 0x0, symName: __ZNSt3__16vectorINS_4pairIiNS_12basic_stringIcNS_11char_traitsIcEENS_9allocatorIcEEEEEENS5_IS8_EEE9__end_capB8ue170006Ev, symObjAddr: 0x24C4, symBinAddr: 0x100006090, symSize: 0x28 }
  - { offsetInCU: 0xC10D, offset: 0xC10D, size: 0x8, addend: 0x0, symName: __ZNSt3__16vectorINS_4pairIiNS_12basic_stringIcNS_11char_traitsIcEENS_9allocatorIcEEEEEENS5_IS8_EEE22__construct_one_at_endB8ue170006IJS8_EEEvDpOT_, symObjAddr: 0x24EC, symBinAddr: 0x1000060B8, symSize: 0x98 }
  - { offsetInCU: 0xC15A, offset: 0xC15A, size: 0x8, addend: 0x0, symName: __ZNSt3__16vectorINS_4pairIiNS_12basic_stringIcNS_11char_traitsIcEENS_9allocatorIcEEEEEENS5_IS8_EEE21__push_back_slow_pathIS8_EEvOT_, symObjAddr: 0x2584, symBinAddr: 0x100006150, symSize: 0xE0 }
  - { offsetInCU: 0xC1B7, offset: 0xC1B7, size: 0x8, addend: 0x0, symName: __ZNSt3__117__compressed_pairIPNS_4pairIiNS_12basic_stringIcNS_11char_traitsIcEENS_9allocatorIcEEEEEENS5_IS8_EEE5firstB8ue170006Ev, symObjAddr: 0x2664, symBinAddr: 0x100006230, symSize: 0x24 }
  - { offsetInCU: 0xC1DC, offset: 0xC1DC, size: 0x8, addend: 0x0, symName: __ZNSt3__122__compressed_pair_elemIPNS_4pairIiNS_12basic_stringIcNS_11char_traitsIcEENS_9allocatorIcEEEEEELi0ELb0EE5__getB8ue170006Ev, symObjAddr: 0x2688, symBinAddr: 0x100006254, symSize: 0x14 }
  - { offsetInCU: 0xC21A, offset: 0xC21A, size: 0x8, addend: 0x0, symName: __ZNSt3__16vectorINS_4pairIiNS_12basic_stringIcNS_11char_traitsIcEENS_9allocatorIcEEEEEENS5_IS8_EEE21_ConstructTransactionC1B8ue170006ERSA_m, symObjAddr: 0x269C, symBinAddr: 0x100006268, symSize: 0x3C }
  - { offsetInCU: 0xC261, offset: 0xC261, size: 0x8, addend: 0x0, symName: __ZNSt3__116allocator_traitsINS_9allocatorINS_4pairIiNS_12basic_stringIcNS_11char_traitsIcEENS1_IcEEEEEEEEE9constructB8ue170006IS8_JS8_EvEEvRS9_PT_DpOT0_, symObjAddr: 0x26D8, symBinAddr: 0x1000062A4, symSize: 0x34 }
  - { offsetInCU: 0xC2B8, offset: 0xC2B8, size: 0x8, addend: 0x0, symName: __ZNSt3__16vectorINS_4pairIiNS_12basic_stringIcNS_11char_traitsIcEENS_9allocatorIcEEEEEENS5_IS8_EEE21_ConstructTransactionD1B8ue170006Ev, symObjAddr: 0x270C, symBinAddr: 0x1000062D8, symSize: 0x2C }
  - { offsetInCU: 0xC2E1, offset: 0xC2E1, size: 0x8, addend: 0x0, symName: __ZNSt3__16vectorINS_4pairIiNS_12basic_stringIcNS_11char_traitsIcEENS_9allocatorIcEEEEEENS5_IS8_EEE21_ConstructTransactionC2B8ue170006ERSA_m, symObjAddr: 0x2738, symBinAddr: 0x100006304, symSize: 0x44 }
  - { offsetInCU: 0xC328, offset: 0xC328, size: 0x8, addend: 0x0, symName: __ZNSt3__19allocatorINS_4pairIiNS_12basic_stringIcNS_11char_traitsIcEENS0_IcEEEEEEE9constructB8ue170006IS7_JS7_EEEvPT_DpOT0_, symObjAddr: 0x277C, symBinAddr: 0x100006348, symSize: 0x30 }
  - { offsetInCU: 0xC37D, offset: 0xC37D, size: 0x8, addend: 0x0, symName: __ZNSt3__14pairIiNS_12basic_stringIcNS_11char_traitsIcEENS_9allocatorIcEEEEEC1B8ue170006EOS7_, symObjAddr: 0x27AC, symBinAddr: 0x100006378, symSize: 0x34 }
  - { offsetInCU: 0xC3B1, offset: 0xC3B1, size: 0x8, addend: 0x0, symName: __ZNSt3__14pairIiNS_12basic_stringIcNS_11char_traitsIcEENS_9allocatorIcEEEEEC2B8ue170006EOS7_, symObjAddr: 0x27E0, symBinAddr: 0x1000063AC, symSize: 0x48 }
  - { offsetInCU: 0xC3E5, offset: 0xC3E5, size: 0x8, addend: 0x0, symName: __ZNSt3__16vectorINS_4pairIiNS_12basic_stringIcNS_11char_traitsIcEENS_9allocatorIcEEEEEENS5_IS8_EEE21_ConstructTransactionD2B8ue170006Ev, symObjAddr: 0x2828, symBinAddr: 0x1000063F4, symSize: 0x20 }
  - { offsetInCU: 0xC40D, offset: 0xC40D, size: 0x8, addend: 0x0, symName: __ZNKSt3__16vectorINS_4pairIiNS_12basic_stringIcNS_11char_traitsIcEENS_9allocatorIcEEEEEENS5_IS8_EEE11__recommendB8ue170006Em, symObjAddr: 0x2848, symBinAddr: 0x100006414, symSize: 0xB4 }
  - { offsetInCU: 0xC461, offset: 0xC461, size: 0x8, addend: 0x0, symName: __ZNSt3__114__split_bufferINS_4pairIiNS_12basic_stringIcNS_11char_traitsIcEENS_9allocatorIcEEEEEERNS5_IS8_EEEC1EmmSA_, symObjAddr: 0x28FC, symBinAddr: 0x1000064C8, symSize: 0x44 }
  - { offsetInCU: 0xC4B6, offset: 0xC4B6, size: 0x8, addend: 0x0, symName: __ZNSt3__114__split_bufferINS_4pairIiNS_12basic_stringIcNS_11char_traitsIcEENS_9allocatorIcEEEEEERNS5_IS8_EEED1Ev, symObjAddr: 0x2A50, symBinAddr: 0x10000661C, symSize: 0x2C }
  - { offsetInCU: 0xC4E0, offset: 0xC4E0, size: 0x8, addend: 0x0, symName: __ZNKSt3__16vectorINS_4pairIiNS_12basic_stringIcNS_11char_traitsIcEENS_9allocatorIcEEEEEENS5_IS8_EEE8max_sizeEv, symObjAddr: 0x2A7C, symBinAddr: 0x100006648, symSize: 0x74 }
  - { offsetInCU: 0xC507, offset: 0xC507, size: 0x8, addend: 0x0, symName: __ZNKSt3__16vectorINS_4pairIiNS_12basic_stringIcNS_11char_traitsIcEENS_9allocatorIcEEEEEENS5_IS8_EEE20__throw_length_errorB8ue170006Ev, symObjAddr: 0x2AF0, symBinAddr: 0x1000066BC, symSize: 0x1C }
  - { offsetInCU: 0xC536, offset: 0xC536, size: 0x8, addend: 0x0, symName: __ZNSt3__116allocator_traitsINS_9allocatorINS_4pairIiNS_12basic_stringIcNS_11char_traitsIcEENS1_IcEEEEEEEEE8max_sizeB8ue170006IS9_vEEmRKS9_, symObjAddr: 0x2B64, symBinAddr: 0x100006730, symSize: 0x24 }
  - { offsetInCU: 0xC564, offset: 0xC564, size: 0x8, addend: 0x0, symName: __ZNKSt3__16vectorINS_4pairIiNS_12basic_stringIcNS_11char_traitsIcEENS_9allocatorIcEEEEEENS5_IS8_EEE7__allocB8ue170006Ev, symObjAddr: 0x2B88, symBinAddr: 0x100006754, symSize: 0x28 }
  - { offsetInCU: 0xC59D, offset: 0xC59D, size: 0x8, addend: 0x0, symName: __ZNKSt3__16__lessIvvEclB8ue170006ImmEEbRKT_RKT0_, symObjAddr: 0x2C04, symBinAddr: 0x1000067D0, symSize: 0x34 }
  - { offsetInCU: 0xC5F0, offset: 0xC5F0, size: 0x8, addend: 0x0, symName: __ZNKSt3__19allocatorINS_4pairIiNS_12basic_stringIcNS_11char_traitsIcEENS0_IcEEEEEEE8max_sizeB8ue170006Ev, symObjAddr: 0x2C38, symBinAddr: 0x100006804, symSize: 0x14 }
  - { offsetInCU: 0xC615, offset: 0xC615, size: 0x8, addend: 0x0, symName: __ZNKSt3__117__compressed_pairIPNS_4pairIiNS_12basic_stringIcNS_11char_traitsIcEENS_9allocatorIcEEEEEENS5_IS8_EEE6secondB8ue170006Ev, symObjAddr: 0x2C4C, symBinAddr: 0x100006818, symSize: 0x24 }
  - { offsetInCU: 0xC63A, offset: 0xC63A, size: 0x8, addend: 0x0, symName: __ZNKSt3__122__compressed_pair_elemINS_9allocatorINS_4pairIiNS_12basic_stringIcNS_11char_traitsIcEENS1_IcEEEEEEEELi1ELb1EE5__getB8ue170006Ev, symObjAddr: 0x2C70, symBinAddr: 0x10000683C, symSize: 0x14 }
  - { offsetInCU: 0xC65F, offset: 0xC65F, size: 0x8, addend: 0x0, symName: __ZNSt12length_errorC1B8ue170006EPKc, symObjAddr: 0x2CE8, symBinAddr: 0x1000068B4, symSize: 0x34 }
  - { offsetInCU: 0xC696, offset: 0xC696, size: 0x8, addend: 0x0, symName: __ZNSt12length_errorC2B8ue170006EPKc, symObjAddr: 0x2D1C, symBinAddr: 0x1000068E8, symSize: 0x4C }
  - { offsetInCU: 0xC6CD, offset: 0xC6CD, size: 0x8, addend: 0x0, symName: __ZNSt3__114__split_bufferINS_4pairIiNS_12basic_stringIcNS_11char_traitsIcEENS_9allocatorIcEEEEEERNS5_IS8_EEEC2EmmSA_, symObjAddr: 0x2DBC, symBinAddr: 0x100006988, symSize: 0xD4 }
  - { offsetInCU: 0xC740, offset: 0xC740, size: 0x8, addend: 0x0, symName: __ZNSt3__117__compressed_pairIPNS_4pairIiNS_12basic_stringIcNS_11char_traitsIcEENS_9allocatorIcEEEEEERNS5_IS8_EEEC1B8ue170006IDnSB_EEOT_OT0_, symObjAddr: 0x2E90, symBinAddr: 0x100006A5C, symSize: 0x3C }
  - { offsetInCU: 0xC797, offset: 0xC797, size: 0x8, addend: 0x0, symName: __ZNSt3__114__split_bufferINS_4pairIiNS_12basic_stringIcNS_11char_traitsIcEENS_9allocatorIcEEEEEERNS5_IS8_EEE7__allocB8ue170006Ev, symObjAddr: 0x2F0C, symBinAddr: 0x100006AD8, symSize: 0x28 }
  - { offsetInCU: 0xC7BC, offset: 0xC7BC, size: 0x8, addend: 0x0, symName: __ZNSt3__114__split_bufferINS_4pairIiNS_12basic_stringIcNS_11char_traitsIcEENS_9allocatorIcEEEEEERNS5_IS8_EEE9__end_capB8ue170006Ev, symObjAddr: 0x2F34, symBinAddr: 0x100006B00, symSize: 0x28 }
  - { offsetInCU: 0xC7E1, offset: 0xC7E1, size: 0x8, addend: 0x0, symName: __ZNSt3__117__compressed_pairIPNS_4pairIiNS_12basic_stringIcNS_11char_traitsIcEENS_9allocatorIcEEEEEERNS5_IS8_EEEC2B8ue170006IDnSB_EEOT_OT0_, symObjAddr: 0x2F5C, symBinAddr: 0x100006B28, symSize: 0x48 }
  - { offsetInCU: 0xC838, offset: 0xC838, size: 0x8, addend: 0x0, symName: __ZNSt3__122__compressed_pair_elemIRNS_9allocatorINS_4pairIiNS_12basic_stringIcNS_11char_traitsIcEENS1_IcEEEEEEEELi1ELb0EEC2B8ue170006ISA_vEEOT_, symObjAddr: 0x2FA4, symBinAddr: 0x100006B70, symSize: 0x20 }
  - { offsetInCU: 0xC879, offset: 0xC879, size: 0x8, addend: 0x0, symName: __ZNSt3__19allocatorINS_4pairIiNS_12basic_stringIcNS_11char_traitsIcEENS0_IcEEEEEEE8allocateB8ue170006Em, symObjAddr: 0x2FC4, symBinAddr: 0x100006B90, symSize: 0x84 }
  - { offsetInCU: 0xC8AC, offset: 0xC8AC, size: 0x8, addend: 0x0, symName: __ZNSt3__117__compressed_pairIPNS_4pairIiNS_12basic_stringIcNS_11char_traitsIcEENS_9allocatorIcEEEEEERNS5_IS8_EEE6secondB8ue170006Ev, symObjAddr: 0x3048, symBinAddr: 0x100006C14, symSize: 0x28 }
  - { offsetInCU: 0xC8D1, offset: 0xC8D1, size: 0x8, addend: 0x0, symName: __ZNSt3__122__compressed_pair_elemIRNS_9allocatorINS_4pairIiNS_12basic_stringIcNS_11char_traitsIcEENS1_IcEEEEEEEELi1ELb0EE5__getB8ue170006Ev, symObjAddr: 0x3070, symBinAddr: 0x100006C3C, symSize: 0x18 }
  - { offsetInCU: 0xC8F6, offset: 0xC8F6, size: 0x8, addend: 0x0, symName: __ZNSt3__117__compressed_pairIPNS_4pairIiNS_12basic_stringIcNS_11char_traitsIcEENS_9allocatorIcEEEEEERNS5_IS8_EEE5firstB8ue170006Ev, symObjAddr: 0x3088, symBinAddr: 0x100006C54, symSize: 0x24 }
  - { offsetInCU: 0xC91B, offset: 0xC91B, size: 0x8, addend: 0x0, symName: __ZNSt3__116reverse_iteratorIPNS_4pairIiNS_12basic_stringIcNS_11char_traitsIcEENS_9allocatorIcEEEEEEEC1B8ue170006ES9_, symObjAddr: 0x31E0, symBinAddr: 0x100006DAC, symSize: 0x34 }
  - { offsetInCU: 0xC952, offset: 0xC952, size: 0x8, addend: 0x0, symName: __ZNKSt3__116reverse_iteratorIPNS_4pairIiNS_12basic_stringIcNS_11char_traitsIcEENS_9allocatorIcEEEEEEE4baseB8ue170006Ev, symObjAddr: 0x3214, symBinAddr: 0x100006DE0, symSize: 0x18 }
  - { offsetInCU: 0xC977, offset: 0xC977, size: 0x8, addend: 0x0, symName: __ZNKSt3__16vectorINS_4pairIiNS_12basic_stringIcNS_11char_traitsIcEENS_9allocatorIcEEEEEENS5_IS8_EEE14__annotate_newB8ue170006Em, symObjAddr: 0x3268, symBinAddr: 0x100006E34, symSize: 0xAC }
  - { offsetInCU: 0xC9AB, offset: 0xC9AB, size: 0x8, addend: 0x0, symName: __ZNSt3__129_AllocatorDestroyRangeReverseINS_9allocatorINS_4pairIiNS_12basic_stringIcNS_11char_traitsIcEENS1_IcEEEEEEEENS_16reverse_iteratorIPS8_EEEC1B8ue170006ERS9_RSC_SF_, symObjAddr: 0x3360, symBinAddr: 0x100006F2C, symSize: 0x44 }
  - { offsetInCU: 0xCA01, offset: 0xCA01, size: 0x8, addend: 0x0, symName: __ZNSt3__116allocator_traitsINS_9allocatorINS_4pairIiNS_12basic_stringIcNS_11char_traitsIcEENS1_IcEEEEEEEEE9constructB8ue170006IS8_JRKS8_EvEEvRS9_PT_DpOT0_, symObjAddr: 0x33EC, symBinAddr: 0x100006FB8, symSize: 0x34 }
  - { offsetInCU: 0xCA58, offset: 0xCA58, size: 0x8, addend: 0x0, symName: __ZNKSt3__116reverse_iteratorIPNS_4pairIiNS_12basic_stringIcNS_11char_traitsIcEENS_9allocatorIcEEEEEEEdeB8ue170006Ev, symObjAddr: 0x3444, symBinAddr: 0x100007010, symSize: 0x28 }
  - { offsetInCU: 0xCA8B, offset: 0xCA8B, size: 0x8, addend: 0x0, symName: __ZNSt3__116reverse_iteratorIPNS_4pairIiNS_12basic_stringIcNS_11char_traitsIcEENS_9allocatorIcEEEEEEEppB8ue170006Ev, symObjAddr: 0x346C, symBinAddr: 0x100007038, symSize: 0x20 }
  - { offsetInCU: 0xCAB0, offset: 0xCAB0, size: 0x8, addend: 0x0, symName: __ZNSt3__128__exception_guard_exceptionsINS_29_AllocatorDestroyRangeReverseINS_9allocatorINS_4pairIiNS_12basic_stringIcNS_11char_traitsIcEENS2_IcEEEEEEEENS_16reverse_iteratorIPS9_EEEEE10__completeB8ue170006Ev, symObjAddr: 0x348C, symBinAddr: 0x100007058, symSize: 0x1C }
  - { offsetInCU: 0xCAD5, offset: 0xCAD5, size: 0x8, addend: 0x0, symName: __ZNSt3__128__exception_guard_exceptionsINS_29_AllocatorDestroyRangeReverseINS_9allocatorINS_4pairIiNS_12basic_stringIcNS_11char_traitsIcEENS2_IcEEEEEEEENS_16reverse_iteratorIPS9_EEEEED1B8ue170006Ev, symObjAddr: 0x34A8, symBinAddr: 0x100007074, symSize: 0x2C }
  - { offsetInCU: 0xCAFE, offset: 0xCAFE, size: 0x8, addend: 0x0, symName: __ZNSt3__128__exception_guard_exceptionsINS_29_AllocatorDestroyRangeReverseINS_9allocatorINS_4pairIiNS_12basic_stringIcNS_11char_traitsIcEENS2_IcEEEEEEEENS_16reverse_iteratorIPS9_EEEEEC1B8ue170006ESE_, symObjAddr: 0x34D4, symBinAddr: 0x1000070A0, symSize: 0x34 }
  - { offsetInCU: 0xCB36, offset: 0xCB36, size: 0x8, addend: 0x0, symName: __ZNSt3__128__exception_guard_exceptionsINS_29_AllocatorDestroyRangeReverseINS_9allocatorINS_4pairIiNS_12basic_stringIcNS_11char_traitsIcEENS2_IcEEEEEEEENS_16reverse_iteratorIPS9_EEEEEC2B8ue170006ESE_, symObjAddr: 0x3508, symBinAddr: 0x1000070D4, symSize: 0x30 }
  - { offsetInCU: 0xCB6E, offset: 0xCB6E, size: 0x8, addend: 0x0, symName: __ZNSt3__129_AllocatorDestroyRangeReverseINS_9allocatorINS_4pairIiNS_12basic_stringIcNS_11char_traitsIcEENS1_IcEEEEEEEENS_16reverse_iteratorIPS8_EEEC2B8ue170006ERS9_RSC_SF_, symObjAddr: 0x3538, symBinAddr: 0x100007104, symSize: 0x38 }
  - { offsetInCU: 0xCBC4, offset: 0xCBC4, size: 0x8, addend: 0x0, symName: __ZNSt3__19allocatorINS_4pairIiNS_12basic_stringIcNS_11char_traitsIcEENS0_IcEEEEEEE9constructB8ue170006IS7_JRKS7_EEEvPT_DpOT0_, symObjAddr: 0x3570, symBinAddr: 0x10000713C, symSize: 0x30 }
  - { offsetInCU: 0xCC19, offset: 0xCC19, size: 0x8, addend: 0x0, symName: __ZNSt3__14pairIiNS_12basic_stringIcNS_11char_traitsIcEENS_9allocatorIcEEEEEC1B8ue170006ERKS7_, symObjAddr: 0x35A0, symBinAddr: 0x10000716C, symSize: 0x34 }
  - { offsetInCU: 0xCC4D, offset: 0xCC4D, size: 0x8, addend: 0x0, symName: __ZNSt3__14pairIiNS_12basic_stringIcNS_11char_traitsIcEENS_9allocatorIcEEEEEC2B8ue170006ERKS7_, symObjAddr: 0x35D4, symBinAddr: 0x1000071A0, symSize: 0x48 }
  - { offsetInCU: 0xCC86, offset: 0xCC86, size: 0x8, addend: 0x0, symName: __ZNSt3__119__to_address_helperINS_16reverse_iteratorIPNS_4pairIiNS_12basic_stringIcNS_11char_traitsIcEENS_9allocatorIcEEEEEEEEvE6__callB8ue170006ERKSB_, symObjAddr: 0x361C, symBinAddr: 0x1000071E8, symSize: 0x4C }
  - { offsetInCU: 0xCCA9, offset: 0xCCA9, size: 0x8, addend: 0x0, symName: __ZNKSt3__116reverse_iteratorIPNS_4pairIiNS_12basic_stringIcNS_11char_traitsIcEENS_9allocatorIcEEEEEEEptB8ue170006Ev, symObjAddr: 0x3668, symBinAddr: 0x100007234, symSize: 0x24 }
  - { offsetInCU: 0xCCCE, offset: 0xCCCE, size: 0x8, addend: 0x0, symName: __ZNSt3__128__exception_guard_exceptionsINS_29_AllocatorDestroyRangeReverseINS_9allocatorINS_4pairIiNS_12basic_stringIcNS_11char_traitsIcEENS2_IcEEEEEEEENS_16reverse_iteratorIPS9_EEEEED2B8ue170006Ev, symObjAddr: 0x368C, symBinAddr: 0x100007258, symSize: 0x48 }
  - { offsetInCU: 0xCCF7, offset: 0xCCF7, size: 0x8, addend: 0x0, symName: __ZNKSt3__129_AllocatorDestroyRangeReverseINS_9allocatorINS_4pairIiNS_12basic_stringIcNS_11char_traitsIcEENS1_IcEEEEEEEENS_16reverse_iteratorIPS8_EEEclB8ue170006Ev, symObjAddr: 0x36D4, symBinAddr: 0x1000072A0, symSize: 0xB4 }
  - { offsetInCU: 0xCD1D, offset: 0xCD1D, size: 0x8, addend: 0x0, symName: __ZNSt3__116reverse_iteratorINS0_IPNS_4pairIiNS_12basic_stringIcNS_11char_traitsIcEENS_9allocatorIcEEEEEEEEEC1B8ue170006ESA_, symObjAddr: 0x37F8, symBinAddr: 0x1000073C4, symSize: 0x3C }
  - { offsetInCU: 0xCD54, offset: 0xCD54, size: 0x8, addend: 0x0, symName: __ZNSt3__116reverse_iteratorINS0_IPNS_4pairIiNS_12basic_stringIcNS_11char_traitsIcEENS_9allocatorIcEEEEEEEEEppB8ue170006Ev, symObjAddr: 0x38B8, symBinAddr: 0x100007484, symSize: 0x30 }
  - { offsetInCU: 0xCD79, offset: 0xCD79, size: 0x8, addend: 0x0, symName: __ZNKSt3__116reverse_iteratorINS0_IPNS_4pairIiNS_12basic_stringIcNS_11char_traitsIcEENS_9allocatorIcEEEEEEEEE4baseB8ue170006Ev, symObjAddr: 0x38E8, symBinAddr: 0x1000074B4, symSize: 0x24 }
  - { offsetInCU: 0xCDA3, offset: 0xCDA3, size: 0x8, addend: 0x0, symName: __ZNSt3__119__to_address_helperINS_16reverse_iteratorINS1_IPNS_4pairIiNS_12basic_stringIcNS_11char_traitsIcEENS_9allocatorIcEEEEEEEEEEvE6__callB8ue170006ERKSC_, symObjAddr: 0x390C, symBinAddr: 0x1000074D8, symSize: 0x4C }
  - { offsetInCU: 0xCDC6, offset: 0xCDC6, size: 0x8, addend: 0x0, symName: __ZNKSt3__116reverse_iteratorINS0_IPNS_4pairIiNS_12basic_stringIcNS_11char_traitsIcEENS_9allocatorIcEEEEEEEEEptB8ue170006Ev, symObjAddr: 0x3958, symBinAddr: 0x100007524, symSize: 0x24 }
  - { offsetInCU: 0xCDEB, offset: 0xCDEB, size: 0x8, addend: 0x0, symName: __ZNKSt3__116reverse_iteratorINS0_IPNS_4pairIiNS_12basic_stringIcNS_11char_traitsIcEENS_9allocatorIcEEEEEEEEEdeB8ue170006Ev, symObjAddr: 0x397C, symBinAddr: 0x100007548, symSize: 0x34 }
  - { offsetInCU: 0xCE1E, offset: 0xCE1E, size: 0x8, addend: 0x0, symName: __ZNSt3__116reverse_iteratorIPNS_4pairIiNS_12basic_stringIcNS_11char_traitsIcEENS_9allocatorIcEEEEEEEmmB8ue170006Ev, symObjAddr: 0x39B0, symBinAddr: 0x10000757C, symSize: 0x20 }
  - { offsetInCU: 0xCE43, offset: 0xCE43, size: 0x8, addend: 0x0, symName: __ZNSt3__116reverse_iteratorINS0_IPNS_4pairIiNS_12basic_stringIcNS_11char_traitsIcEENS_9allocatorIcEEEEEEEEEC2B8ue170006ESA_, symObjAddr: 0x39D0, symBinAddr: 0x10000759C, symSize: 0x2C }
  - { offsetInCU: 0xCE7A, offset: 0xCE7A, size: 0x8, addend: 0x0, symName: __ZNSt3__116reverse_iteratorIPNS_4pairIiNS_12basic_stringIcNS_11char_traitsIcEENS_9allocatorIcEEEEEEEC2B8ue170006ES9_, symObjAddr: 0x39FC, symBinAddr: 0x1000075C8, symSize: 0x28 }
  - { offsetInCU: 0xCEB1, offset: 0xCEB1, size: 0x8, addend: 0x0, symName: __ZNSt3__114__split_bufferINS_4pairIiNS_12basic_stringIcNS_11char_traitsIcEENS_9allocatorIcEEEEEERNS5_IS8_EEED2Ev, symObjAddr: 0x3A24, symBinAddr: 0x1000075F0, symSize: 0x80 }
  - { offsetInCU: 0xCEDC, offset: 0xCEDC, size: 0x8, addend: 0x0, symName: __ZNSt3__114__split_bufferINS_4pairIiNS_12basic_stringIcNS_11char_traitsIcEENS_9allocatorIcEEEEEERNS5_IS8_EEE5clearB8ue170006Ev, symObjAddr: 0x3AA4, symBinAddr: 0x100007670, symSize: 0x28 }
  - { offsetInCU: 0xCF01, offset: 0xCF01, size: 0x8, addend: 0x0, symName: __ZNKSt3__114__split_bufferINS_4pairIiNS_12basic_stringIcNS_11char_traitsIcEENS_9allocatorIcEEEEEERNS5_IS8_EEE8capacityB8ue170006Ev, symObjAddr: 0x3ACC, symBinAddr: 0x100007698, symSize: 0x40 }
  - { offsetInCU: 0xCF26, offset: 0xCF26, size: 0x8, addend: 0x0, symName: __ZNSt3__114__split_bufferINS_4pairIiNS_12basic_stringIcNS_11char_traitsIcEENS_9allocatorIcEEEEEERNS5_IS8_EEE17__destruct_at_endB8ue170006EPS8_, symObjAddr: 0x3B0C, symBinAddr: 0x1000076D8, symSize: 0x2C }
  - { offsetInCU: 0xCF58, offset: 0xCF58, size: 0x8, addend: 0x0, symName: __ZNSt3__114__split_bufferINS_4pairIiNS_12basic_stringIcNS_11char_traitsIcEENS_9allocatorIcEEEEEERNS5_IS8_EEE17__destruct_at_endB8ue170006EPS8_NS_17integral_constantIbLb0EEE, symObjAddr: 0x3B38, symBinAddr: 0x100007704, symSize: 0x94 }
  - { offsetInCU: 0xCF98, offset: 0xCF98, size: 0x8, addend: 0x0, symName: __ZNKSt3__114__split_bufferINS_4pairIiNS_12basic_stringIcNS_11char_traitsIcEENS_9allocatorIcEEEEEERNS5_IS8_EEE9__end_capB8ue170006Ev, symObjAddr: 0x3BCC, symBinAddr: 0x100007798, symSize: 0x28 }
  - { offsetInCU: 0xCFBD, offset: 0xCFBD, size: 0x8, addend: 0x0, symName: __ZNKSt3__117__compressed_pairIPNS_4pairIiNS_12basic_stringIcNS_11char_traitsIcEENS_9allocatorIcEEEEEERNS5_IS8_EEE5firstB8ue170006Ev, symObjAddr: 0x3BF4, symBinAddr: 0x1000077C0, symSize: 0x24 }
  - { offsetInCU: 0xCFE2, offset: 0xCFE2, size: 0x8, addend: 0x0, symName: __ZNKSt3__112basic_stringIcNS_11char_traitsIcEENS_9allocatorIcEEE4sizeB8ue170006Ev, symObjAddr: 0x3C18, symBinAddr: 0x1000077E4, symSize: 0x54 }
  - { offsetInCU: 0xD007, offset: 0xD007, size: 0x8, addend: 0x0, symName: __ZNKSt3__112basic_stringIcNS_11char_traitsIcEENS_9allocatorIcEEE15__get_long_sizeB8ue170006Ev, symObjAddr: 0x3C6C, symBinAddr: 0x100007838, symSize: 0x28 }
  - { offsetInCU: 0xD02C, offset: 0xD02C, size: 0x8, addend: 0x0, symName: __ZNKSt3__112basic_stringIcNS_11char_traitsIcEENS_9allocatorIcEEE16__get_short_sizeB8ue170006Ev, symObjAddr: 0x3C94, symBinAddr: 0x100007860, symSize: 0x34 }
...
